; Function Attrs: nounwind uwtable
define dso_local void @zmscoreCommand(ptr noundef %0) local_unnamed_addr #0 {
  %2 = alloca double, align 8
  %3 = getelementptr inbounds nuw i8, ptr %0, i64 96
  %4 = load ptr, ptr %3, align 8, !tbaa !136
  %5 = getelementptr inbounds nuw i8, ptr %4, i64 8
  %6 = load ptr, ptr %5, align 8, !tbaa !146
  call void @llvm.lifetime.start.p0(i64 8, ptr nonnull %2) #18
  %7 = getelementptr inbounds nuw i8, ptr %0, i64 32
  %8 = load ptr, ptr %7, align 8, !tbaa !150
  %9 = tail call ptr @lookupKeyRead(ptr noundef %8, ptr noundef %6) #18
  %10 = tail call i32 @checkType(ptr noundef %0, ptr noundef %9, i32 noundef 3) #18
  %.not = icmp eq i32 %10, 0
  br i1 %.not, label %11, label %.loopexit

11:                                               ; preds = %1
  %12 = getelementptr inbounds nuw i8, ptr %0, i64 88
  %13 = load i32, ptr %12, align 8, !tbaa !147
  %14 = add nsw i32 %13, -2
  %15 = sext i32 %14 to i64
  tail call void @addReplyArrayLen(ptr noundef nonnull %0, i64 noundef %15) #18
  %16 = load i32, ptr %12, align 8, !tbaa !147
  %17 = icmp sgt i32 %16, 2
  br i1 %17, label %.lr.ph, label %.loopexit

.lr.ph:                                           ; preds = %11
  %18 = icmp eq ptr %9, null
  %19 = getelementptr inbounds nuw i8, ptr %9, i64 8
  br i1 %18, label %zsetScore.exit.thread.us, label %.lr.ph.split

zsetScore.exit.thread.us:                         ; preds = %.lr.ph, %zsetScore.exit.thread.us
  %.018.us = phi i32 [ %20, %zsetScore.exit.thread.us ], [ 2, %.lr.ph ]
  tail call void @addReplyNull(ptr noundef nonnull %0) #18
  %20 = add nuw nsw i32 %.018.us, 1
  %21 = load i32, ptr %12, align 8, !tbaa !147
  %22 = icmp slt i32 %20, %21
  br i1 %22, label %zsetScore.exit.thread.us, label %.loopexit, !llvm.loop !213

.lr.ph.split:                                     ; preds = %.lr.ph, %45
  %indvars.iv = phi i64 [ %indvars.iv.next, %45 ], [ 2, %.lr.ph ]
  %23 = load ptr, ptr %3, align 8, !tbaa !136
  %24 = getelementptr inbounds nuw ptr, ptr %23, i64 %indvars.iv
  %25 = load ptr, ptr %24, align 8, !tbaa !146
  %26 = getelementptr inbounds nuw i8, ptr %25, i64 8
  %27 = load ptr, ptr %26, align 8, !tbaa !75
  %.not17 = icmp eq ptr %27, null
  br i1 %.not17, label %zsetScore.exit.thread, label %28

28:                                               ; preds = %.lr.ph.split
  %29 = load i32, ptr %9, align 8
  %30 = lshr i32 %29, 4
  %31 = and i32 %30, 15
  switch i32 %31, label %43 [
    i32 11, label %32
    i32 7, label %36
  ]

32:                                               ; preds = %28
  %33 = load ptr, ptr %19, align 8, !tbaa !75
  %34 = call ptr @zzlFind(ptr noundef %33, ptr noundef nonnull %27, ptr noundef nonnull %2)
  %35 = icmp eq ptr %34, null
  br i1 %35, label %zsetScore.exit.thread, label %.zsetScore.exit_crit_edge

.zsetScore.exit_crit_edge:                        ; preds = %32
  %.pre = load double, ptr %2, align 8, !tbaa !5
  br label %zsetScore.exit

36:                                               ; preds = %28
  %37 = load ptr, ptr %19, align 8, !tbaa !75
  %38 = load ptr, ptr %37, align 8, !tbaa !125
  %39 = call ptr @dictFind(ptr noundef %38, ptr noundef nonnull %27) #18
  %40 = icmp eq ptr %39, null
  br i1 %40, label %zsetScore.exit.thread, label %.thread.i

.thread.i:                                        ; preds = %36
  %41 = call ptr @dictGetVal(ptr noundef nonnull %39) #18
  %42 = load double, ptr %41, align 8, !tbaa !5
  store double %42, ptr %2, align 8, !tbaa !5
  br label %zsetScore.exit

43:                                               ; preds = %28
  call void (ptr, i32, ptr, ...) @_serverPanic(ptr noundef nonnull @.str.1, i32 noundef 1359, ptr noundef nonnull @.str.9) #18
  call void @abort() #19
  unreachable

zsetScore.exit.thread:                            ; preds = %36, %32, %.lr.ph.split
  call void @addReplyNull(ptr noundef nonnull %0) #18
  br label %45

zsetScore.exit:                                   ; preds = %.zsetScore.exit_crit_edge, %.thread.i
  %44 = phi double [ %.pre, %.zsetScore.exit_crit_edge ], [ %42, %.thread.i ]
  call void @addReplyDouble(ptr noundef nonnull %0, double noundef %44) #18
  br label %45

45:                                               ; preds = %zsetScore.exit.thread, %zsetScore.exit
  %indvars.iv.next = add nuw nsw i64 %indvars.iv, 1
  %46 = load i32, ptr %12, align 8, !tbaa !147
  %47 = sext i32 %46 to i64
  %48 = icmp slt i64 %indvars.iv.next, %47
  br i1 %48, label %.lr.ph.split, label %.loopexit, !llvm.loop !213

.loopexit:                                        ; preds = %45, %zsetScore.exit.thread.us, %11, %1
  call void @llvm.lifetime.end.p0(i64 8, ptr nonnull %2) #18
  ret void
}